; Function Attrs: mustprogress uwtable
define hidden void @_ZN5zxing6qrcode15BitMatrixParser6remaskEv(ptr noundef nonnull readonly align 8 captures(none) dereferenceable(41) %0) local_unnamed_addr #2 align 2 personality ptr @__gxx_personality_v0 {
  %2 = alloca %"class.zxing::ErrorHandler", align 8
  %3 = getelementptr inbounds nuw i8, ptr %0, i64 32
  %4 = load ptr, ptr %3, align 8, !tbaa !52
  %5 = icmp eq ptr %4, null
  br i1 %5, label %32, label %6

6:                                                ; preds = %1
  call void @llvm.lifetime.start.p0(i64 48, ptr nonnull %2) #11
  call void @_ZN5zxing12ErrorHandlerC1Ev(ptr noundef nonnull align 8 dereferenceable(48) %2)
  %7 = load ptr, ptr %3, align 8, !tbaa !52
  %8 = invoke noundef signext i8 @_ZN5zxing6qrcode17FormatInformation11getDataMaskEv(ptr noundef nonnull align 8 dereferenceable(32) %7)
          to label %9 unwind label %15

9:                                                ; preds = %6
  %10 = sext i8 %8 to i32
  %11 = invoke noundef nonnull align 8 dereferenceable(12) ptr @_ZN5zxing6qrcode8DataMask12forReferenceEiRNS_12ErrorHandlerE(i32 noundef %10, ptr noundef nonnull align 8 dereferenceable(48) %2)
          to label %12 unwind label %15

12:                                               ; preds = %9
  %13 = getelementptr inbounds nuw i8, ptr %2, i64 12
  %14 = load i32, ptr %13, align 4, !tbaa !73
  %.not = icmp eq i32 %14, 0
  br i1 %.not, label %17, label %24

15:                                               ; preds = %9, %6
  %16 = landingpad { ptr, i32 }
          cleanup
  br label %35

17:                                               ; preds = %12
  %18 = getelementptr inbounds nuw i8, ptr %0, i64 16
  %19 = load ptr, ptr %18, align 8, !tbaa !18
  %20 = invoke noundef i32 @_ZNK5zxing9BitMatrix9getHeightEv(ptr noundef nonnull align 8 dereferenceable(346) %19)
          to label %21 unwind label %33

21:                                               ; preds = %17
  %22 = load ptr, ptr %18, align 8, !tbaa !18
  %23 = sext i32 %20 to i64
  invoke void @_ZN5zxing6qrcode8DataMask15unmaskBitMatrixERNS_9BitMatrixEm(ptr noundef nonnull align 8 dereferenceable(12) %11, ptr noundef nonnull align 8 dereferenceable(346) %22, i64 noundef %23)
          to label %24 unwind label %33

24:                                               ; preds = %21, %12
  store ptr getelementptr inbounds nuw inrange(-16, 64) (i8, ptr @_ZTVN5zxing12ErrorHandlerE, i64 16), ptr %2, align 8, !tbaa !43
  %25 = getelementptr inbounds nuw i8, ptr %2, i64 16
  %26 = load ptr, ptr %25, align 8, !tbaa !50
  %27 = getelementptr inbounds nuw i8, ptr %2, i64 32
  %28 = icmp eq ptr %26, %27
  br i1 %28, label %_ZNKSt7__cxx1112basic_stringIcSt11char_traitsIcESaIcEE11_M_is_localEv.exit.thread.i.i.i, label %_ZNKSt7__cxx1112basic_stringIcSt11char_traitsIcESaIcEE11_M_is_localEv.exit.i.i.i

_ZNKSt7__cxx1112basic_stringIcSt11char_traitsIcESaIcEE11_M_is_localEv.exit.thread.i.i.i: ; preds = %24
  %29 = getelementptr inbounds nuw i8, ptr %2, i64 24
  %30 = load i64, ptr %29, align 8, !tbaa !51
  %31 = icmp ult i64 %30, 16
  call void @llvm.assume(i1 %31)
  br label %_ZN5zxing12ErrorHandlerD2Ev.exit

_ZNKSt7__cxx1112basic_stringIcSt11char_traitsIcESaIcEE11_M_is_localEv.exit.i.i.i: ; preds = %24
  call void @_ZdlPv(ptr noundef %26) #12
  br label %_ZN5zxing12ErrorHandlerD2Ev.exit

_ZN5zxing12ErrorHandlerD2Ev.exit:                 ; preds = %_ZNKSt7__cxx1112basic_stringIcSt11char_traitsIcESaIcEE11_M_is_localEv.exit.thread.i.i.i, %_ZNKSt7__cxx1112basic_stringIcSt11char_traitsIcESaIcEE11_M_is_localEv.exit.i.i.i
  call void @llvm.lifetime.end.p0(i64 48, ptr nonnull %2) #11
  br label %32

32:                                               ; preds = %1, %_ZN5zxing12ErrorHandlerD2Ev.exit
  ret void

33:                                               ; preds = %21, %17
  %34 = landingpad { ptr, i32 }
          cleanup
  br label %35

35:                                               ; preds = %33, %15
  %.pn = phi { ptr, i32 } [ %34, %33 ], [ %16, %15 ]
  store ptr getelementptr inbounds nuw inrange(-16, 64) (i8, ptr @_ZTVN5zxing12ErrorHandlerE, i64 16), ptr %2, align 8, !tbaa !43
  %36 = getelementptr inbounds nuw i8, ptr %2, i64 16
  %37 = load ptr, ptr %36, align 8, !tbaa !50
  %38 = getelementptr inbounds nuw i8, ptr %2, i64 32
  %39 = icmp eq ptr %37, %38
  br i1 %39, label %_ZNKSt7__cxx1112basic_stringIcSt11char_traitsIcESaIcEE11_M_is_localEv.exit.thread.i.i.i7, label %_ZNKSt7__cxx1112basic_stringIcSt11char_traitsIcESaIcEE11_M_is_localEv.exit.i.i.i6

_ZNKSt7__cxx1112basic_stringIcSt11char_traitsIcESaIcEE11_M_is_localEv.exit.thread.i.i.i7: ; preds = %35
  %40 = getelementptr inbounds nuw i8, ptr %2, i64 24
  %41 = load i64, ptr %40, align 8, !tbaa !51
  %42 = icmp ult i64 %41, 16
  call void @llvm.assume(i1 %42)
  br label %_ZN5zxing12ErrorHandlerD2Ev.exit8

_ZNKSt7__cxx1112basic_stringIcSt11char_traitsIcESaIcEE11_M_is_localEv.exit.i.i.i6: ; preds = %35
  call void @_ZdlPv(ptr noundef %37) #12
  br label %_ZN5zxing12ErrorHandlerD2Ev.exit8

_ZN5zxing12ErrorHandlerD2Ev.exit8:                ; preds = %_ZNKSt7__cxx1112basic_stringIcSt11char_traitsIcESaIcEE11_M_is_localEv.exit.thread.i.i.i7, %_ZNKSt7__cxx1112basic_stringIcSt11char_traitsIcESaIcEE11_M_is_localEv.exit.i.i.i6
  call void @llvm.lifetime.end.p0(i64 48, ptr nonnull %2) #11
  resume { ptr, i32 } %.pn
}